; Function Attrs: mustprogress uwtable
define void @_ZN16BaseMeshIOPluginC1Ev(ptr noundef nonnull align 8 dereferenceable(32) %0) unnamed_addr #9 align 2 personality ptr @__gxx_personality_v0 {
  %2 = getelementptr inbounds i8, ptr %0, i64 32
  store ptr getelementptr inbounds ({ [7 x ptr] }, ptr @_ZTV13MeshLabPlugin, i64 0, i32 0, i64 2), ptr %2, align 8
  %3 = getelementptr inbounds i8, ptr %0, i64 40
  store i8 1, ptr %3, align 8
  %4 = getelementptr inbounds i8, ptr %0, i64 48
  tail call void @_ZN9QFileInfoC1Ev(ptr noundef nonnull align 8 dereferenceable(8) %4)
  %5 = getelementptr inbounds i8, ptr %0, i64 56
  invoke void @_ZN19MeshLabPluginLoggerC2Ev(ptr noundef nonnull align 8 dereferenceable(16) %5)
          to label %6 unwind label %20

6:                                                ; preds = %1
  invoke void @_ZN7QObjectC2EPS_(ptr noundef nonnull align 8 dereferenceable(16) %0, ptr noundef null)
          to label %7 unwind label %22

7:                                                ; preds = %6
  %8 = getelementptr inbounds i8, ptr %0, i64 16
  %9 = load ptr, ptr getelementptr inbounds ([7 x ptr], ptr @_ZTT16BaseMeshIOPlugin, i64 0, i64 1), align 8
  store ptr %9, ptr %8, align 8
  %10 = load ptr, ptr getelementptr inbounds ([7 x ptr], ptr @_ZTT16BaseMeshIOPlugin, i64 0, i64 2), align 8
  %11 = getelementptr i8, ptr %9, i64 -24
  %12 = load i64, ptr %11, align 8
  %13 = getelementptr inbounds i8, ptr %8, i64 %12
  store ptr %10, ptr %13, align 8
  %14 = load ptr, ptr getelementptr inbounds ([7 x ptr], ptr @_ZTT16BaseMeshIOPlugin, i64 0, i64 3), align 8
  %15 = load ptr, ptr %8, align 8
  %16 = getelementptr i8, ptr %15, i64 -32
  %17 = load i64, ptr %16, align 8
  %18 = getelementptr inbounds i8, ptr %8, i64 %17
  store ptr %14, ptr %18, align 8
  %19 = getelementptr inbounds i8, ptr %0, i64 24
  store ptr @_ZN10QArrayData11shared_nullE, ptr %19, align 8
  store ptr getelementptr inbounds ({ [34 x ptr], [24 x ptr], [11 x ptr], [5 x ptr] }, ptr @_ZTV16BaseMeshIOPlugin, i64 0, i32 0, i64 4), ptr %0, align 8
  store ptr getelementptr inbounds ({ [34 x ptr], [24 x ptr], [11 x ptr], [5 x ptr] }, ptr @_ZTV16BaseMeshIOPlugin, i64 0, i32 1, i64 4), ptr %8, align 8
  store ptr getelementptr inbounds ({ [34 x ptr], [24 x ptr], [11 x ptr], [5 x ptr] }, ptr @_ZTV16BaseMeshIOPlugin, i64 0, i32 2, i64 6), ptr %2, align 8
  store ptr getelementptr inbounds ({ [34 x ptr], [24 x ptr], [11 x ptr], [5 x ptr] }, ptr @_ZTV16BaseMeshIOPlugin, i64 0, i32 3, i64 3), ptr %5, align 8
  ret void

20:                                               ; preds = %1
  %21 = landingpad { ptr, i32 }
          cleanup
  br label %24

22:                                               ; preds = %6
  %23 = landingpad { ptr, i32 }
          cleanup
  br label %24

24:                                               ; preds = %22, %20
  %.pn = phi { ptr, i32 } [ %23, %22 ], [ %21, %20 ]
  store ptr getelementptr inbounds ({ [7 x ptr] }, ptr @_ZTV13MeshLabPlugin, i64 0, i32 0, i64 2), ptr %2, align 8
  tail call void @_ZN9QFileInfoD1Ev(ptr noundef nonnull align 8 dereferenceable(8) %4) #31
  resume { ptr, i32 } %.pn
}